; Function Attrs: mustprogress nofree norecurse nosync nounwind willreturn memory(argmem: write) uwtable
define void @_ZN6google8protobuf10FloatValueC2EPNS0_5ArenaE(ptr nocapture noundef nonnull writeonly align 8 dereferenceable(24) %this, ptr noundef %arena) unnamed_addr #4 align 2 personality ptr @__gxx_personality_v0 {
invoke.cont:
  %_internal_metadata_.i.i = getelementptr inbounds i8, ptr %this, i64 8
  %0 = ptrtoint ptr %arena to i64
  store i64 %0, ptr %_internal_metadata_.i.i, align 8
  store ptr getelementptr inbounds ({ [13 x ptr] }, ptr @_ZTVN6google8protobuf10FloatValueE, i64 0, i32 0, i64 2), ptr %this, align 8
  %1 = getelementptr inbounds i8, ptr %this, i64 16
  %_cached_size_.i.i = getelementptr inbounds i8, ptr %this, i64 20
  store i32 0, ptr %_cached_size_.i.i, align 4
  store float 0.000000e+00, ptr %1, align 8
  ret void
}